target datalayout = "e-m:e-p270:32:32-p271:32:32-p272:64:64-i64:64-i128:128-f80:128-n8:16:32:64-S128"
target triple = "x86_64-unknown-linux-gnu"

%"class.rocksdb::Slice" = type { ptr, i64 }
%"class.std::shared_ptr" = type { %"class.std::__shared_ptr" }
%"class.std::__shared_ptr" = type { ptr, %"class.std::__shared_count" }
%"class.std::__shared_count" = type { ptr }
%"class.rocksdb::Endpoint" = type <{ %"class.rocksdb::Slice", i8, [7 x i8] }>
%struct.__toku_dbt = type { ptr, i64, i64, i32 }
%"class.std::_Function_base" = type { %"union.std::_Any_data", ptr }
%"union.std::_Any_data" = type { %"union.std::_Nocopy_types" }
%"union.std::_Nocopy_types" = type { { i64, i64 } }
%"class.rocksdb::RangeTreeLockManager" = type { %"class.rocksdb::RangeLockManagerBase", %"class.rocksdb::RangeLockManagerHandle", %"class.toku::locktree_manager", %"class.std::function", %"class.std::shared_ptr", %"class.std::unordered_map", %"class.rocksdb::InstrumentedMutex", %"class.std::unique_ptr", %"class.rocksdb::DeadlockInfoBufferTempl" }
%"class.rocksdb::RangeLockManagerBase" = type { %"class.rocksdb::LockManager" }
%"class.rocksdb::LockManager" = type { ptr }
%"class.rocksdb::RangeLockManagerHandle" = type { %"class.rocksdb::LockManagerHandle" }
%"class.rocksdb::LockManagerHandle" = type { ptr }
%"class.toku::locktree_manager" = type { i64, i64, %"struct.toku::lt_counters", ptr, ptr, ptr, ptr, %"class.toku::omt", %"class.std::shared_ptr", %struct.toku_mutex_t, %struct.toku_mutex_t, i64, i64, i64, i64, i64, i64, i64, %"class.toku::locktree_manager::locktree_escalator" }
%"struct.toku::lt_counters" = type { i64, i64, i64, i64, i64 }
%"class.toku::omt" = type { i8, i32, %union.anon }
%union.anon = type { %"struct.toku::omt<toku::locktree *>::omt_array" }
%"struct.toku::omt<toku::locktree *>::omt_array" = type { i32, i32, ptr }
%struct.toku_mutex_t = type { %union.pthread_mutex_t, ptr }
%union.pthread_mutex_t = type { %struct.__pthread_mutex_s }
%struct.__pthread_mutex_s = type { i32, i32, i32, i32, i32, i16, i16, %struct.__pthread_internal_list }
%struct.__pthread_internal_list = type { ptr, ptr }
%"class.toku::locktree_manager::locktree_escalator" = type <{ %struct.toku_mutex_t, %struct.toku_cond_t, i8, [7 x i8] }>
%struct.toku_cond_t = type { %union.pthread_cond_t, ptr }
%union.pthread_cond_t = type { %struct.__pthread_cond_s }
%struct.__pthread_cond_s = type { %union.__atomic_wide_counter, %union.__atomic_wide_counter, [2 x i32], [2 x i32], i32, i32, [2 x i32] }
%union.__atomic_wide_counter = type { i64 }
%"class.std::function" = type { %"class.std::_Function_base", ptr }
%"class.std::unordered_map" = type { %"class.std::_Hashtable" }
%"class.std::_Hashtable" = type { ptr, i64, %"struct.std::__detail::_Hash_node_base", i64, %"struct.std::__detail::_Prime_rehash_policy", ptr }
%"struct.std::__detail::_Hash_node_base" = type { ptr }
%"struct.std::__detail::_Prime_rehash_policy" = type { float, i64 }
%"class.rocksdb::InstrumentedMutex" = type <{ %"class.rocksdb::port::Mutex", ptr, ptr, i32, [4 x i8] }>
%"class.rocksdb::port::Mutex" = type { %union.pthread_mutex_t }
%"class.std::unique_ptr" = type { %"struct.std::__uniq_ptr_data" }
%"struct.std::__uniq_ptr_data" = type { %"class.std::__uniq_ptr_impl" }
%"class.std::__uniq_ptr_impl" = type { %"class.std::tuple" }
%"class.std::tuple" = type { %"struct.std::_Tuple_impl" }
%"struct.std::_Tuple_impl" = type { %"struct.std::_Head_base.7" }
%"struct.std::_Head_base.7" = type { ptr }
%"class.rocksdb::DeadlockInfoBufferTempl" = type { %"class.std::vector.8", i32, %"class.std::mutex" }
%"class.std::vector.8" = type { %"struct.std::_Vector_base.9" }
%"struct.std::_Vector_base.9" = type { %"struct.std::_Vector_base<rocksdb::RangeDeadlockPath, std::allocator<rocksdb::RangeDeadlockPath>>::_Vector_impl" }
%"struct.std::_Vector_base<rocksdb::RangeDeadlockPath, std::allocator<rocksdb::RangeDeadlockPath>>::_Vector_impl" = type { %"struct.std::_Vector_base<rocksdb::RangeDeadlockPath, std::allocator<rocksdb::RangeDeadlockPath>>::_Vector_impl_data" }
%"struct.std::_Vector_base<rocksdb::RangeDeadlockPath, std::allocator<rocksdb::RangeDeadlockPath>>::_Vector_impl_data" = type { ptr, ptr, ptr }
%"class.std::mutex" = type { %"class.std::__mutex_base" }
%"class.std::__mutex_base" = type { %union.pthread_mutex_t }

@.str.4 = private unnamed_addr constant [1 x i8] zeroinitializer, align 1

; Function Attrs: mustprogress nounwind uwtable
define linkonce_odr noundef zeroext i1 @_ZNKSt14_Function_base8_M_emptyEv(ptr noundef nonnull align 8 dereferenceable(24) %this) #1 comdat align 2 {
entry:
  %this.addr = alloca ptr, align 8
  store ptr %this, ptr %this.addr, align 8
  %this1 = load ptr, ptr %this.addr, align 8
  %_M_manager = getelementptr inbounds %"class.std::_Function_base", ptr %this1, i32 0, i32 1
  %0 = load ptr, ptr %_M_manager, align 8
  %tobool = icmp ne ptr %0, null
  %lnot = xor i1 %tobool, true
  ret i1 %lnot
}

; Function Attrs: mustprogress nounwind uwtable
define linkonce_odr void @_ZN7rocksdb5SliceC2EPKcm(ptr noundef nonnull align 8 dereferenceable(16) %this, ptr noundef %d, i64 noundef %n) unnamed_addr #1 comdat align 2 {
entry:
  %this.addr = alloca ptr, align 8
  %d.addr = alloca ptr, align 8
  %n.addr = alloca i64, align 8
  store ptr %this, ptr %this.addr, align 8
  store ptr %d, ptr %d.addr, align 8
  store i64 %n, ptr %n.addr, align 8
  %this1 = load ptr, ptr %this.addr, align 8
  %data_ = getelementptr inbounds %"class.rocksdb::Slice", ptr %this1, i32 0, i32 0
  %0 = load ptr, ptr %d.addr, align 8
  store ptr %0, ptr %data_, align 8
  %size_ = getelementptr inbounds %"class.rocksdb::Slice", ptr %this1, i32 0, i32 1
  %1 = load i64, ptr %n.addr, align 8
  store i64 %1, ptr %size_, align 8
  ret void
}

; Function Attrs: mustprogress nounwind uwtable
define linkonce_odr void @_ZN7rocksdb5SliceC2Ev(ptr noundef nonnull align 8 dereferenceable(16) %this) unnamed_addr #1 comdat align 2 {
entry:
  %this.addr = alloca ptr, align 8
  store ptr %this, ptr %this.addr, align 8
  %this1 = load ptr, ptr %this.addr, align 8
  %data_ = getelementptr inbounds %"class.rocksdb::Slice", ptr %this1, i32 0, i32 0
  store ptr @.str.4, ptr %data_, align 8
  %size_ = getelementptr inbounds %"class.rocksdb::Slice", ptr %this1, i32 0, i32 1
  store i64 0, ptr %size_, align 8
  ret void
}

; Function Attrs: mustprogress uwtable
define linkonce_odr noundef zeroext i1 @_ZNKSt8functionIFbRKN7rocksdb8EndpointES3_EEclES3_S3_(ptr noundef nonnull align 8 dereferenceable(32) %this, ptr noundef nonnull align 8 dereferenceable(17) %__args, ptr noundef nonnull align 8 dereferenceable(17) %__args1) #0 comdat align 2 {
entry:
  %this.addr = alloca ptr, align 8
  %__args.addr = alloca ptr, align 8
  %__args.addr2 = alloca ptr, align 8
  store ptr %this, ptr %this.addr, align 8
  store ptr %__args, ptr %__args.addr, align 8
  store ptr %__args1, ptr %__args.addr2, align 8
  %this3 = load ptr, ptr %this.addr, align 8
  %call = call noundef zeroext i1 @_ZNKSt14_Function_base8_M_emptyEv(ptr noundef nonnull align 8 dereferenceable(24) %this3)
  br i1 %call, label %if.then, label %if.end

if.then:                                          ; preds = %entry
  call void @_ZSt25__throw_bad_function_callv() #21
  unreachable

if.end:                                           ; preds = %entry
  %_M_invoker = getelementptr inbounds %"class.std::function", ptr %this3, i32 0, i32 1
  %0 = load ptr, ptr %_M_invoker, align 8
  %_M_functor = getelementptr inbounds %"class.std::_Function_base", ptr %this3, i32 0, i32 0
  %1 = load ptr, ptr %__args.addr, align 8
  %2 = load ptr, ptr %__args.addr2, align 8
  %call4 = call noundef zeroext i1 %0(ptr noundef nonnull align 8 dereferenceable(16) %_M_functor, ptr noundef nonnull align 8 dereferenceable(17) %1, ptr noundef nonnull align 8 dereferenceable(17) %2)
  ret i1 %call4
}

; Function Attrs: mustprogress uwtable
define linkonce_odr void @_ZN7rocksdb20deserialize_endpointINS_8EndpointEEEvPK10__toku_dbtPT_(ptr noundef %dbt, ptr noundef %endp) #0 comdat {
entry:
  %dbt.addr = alloca ptr, align 8
  %endp.addr = alloca ptr, align 8
  %dbt_data = alloca ptr, align 8
  %suffix = alloca i8, align 1
  %ref.tmp = alloca %"class.rocksdb::Slice", align 8
  store ptr %dbt, ptr %dbt.addr, align 8
  store ptr %endp, ptr %endp.addr, align 8
  %0 = load ptr, ptr %dbt.addr, align 8
  %data = getelementptr inbounds %struct.__toku_dbt, ptr %0, i32 0, i32 0
  %1 = load ptr, ptr %data, align 8
  store ptr %1, ptr %dbt_data, align 8
  %2 = load ptr, ptr %dbt_data, align 8
  %arrayidx = getelementptr inbounds i8, ptr %2, i64 0
  %3 = load i8, ptr %arrayidx, align 1
  store i8 %3, ptr %suffix, align 1
  %4 = load i8, ptr %suffix, align 1
  %conv = sext i8 %4 to i32
  %cmp = icmp eq i32 %conv, 1
  %5 = load ptr, ptr %endp.addr, align 8
  %inf_suffix = getelementptr inbounds %"class.rocksdb::Endpoint", ptr %5, i32 0, i32 1
  %frombool = zext i1 %cmp to i8
  store i8 %frombool, ptr %inf_suffix, align 8
  %6 = load ptr, ptr %dbt_data, align 8
  %add.ptr = getelementptr inbounds i8, ptr %6, i64 1
  %7 = load ptr, ptr %dbt.addr, align 8
  %size = getelementptr inbounds %struct.__toku_dbt, ptr %7, i32 0, i32 1
  %8 = load i64, ptr %size, align 8
  %sub = sub i64 %8, 1
  call void @_ZN7rocksdb5SliceC2EPKcm(ptr noundef nonnull align 8 dereferenceable(16) %ref.tmp, ptr noundef %add.ptr, i64 noundef %sub)
  %9 = load ptr, ptr %endp.addr, align 8
  %slice = getelementptr inbounds %"class.rocksdb::Endpoint", ptr %9, i32 0, i32 0
  call void @llvm.memcpy.p0.p0.i64(ptr align 8 %slice, ptr align 8 %ref.tmp, i64 16, i1 false)
  ret void
}

; Function Attrs: mustprogress uwtable
define linkonce_odr void @_ZN7rocksdb8EndpointC2Ev(ptr noundef nonnull align 8 dereferenceable(17) %this) unnamed_addr #0 comdat align 2 {
entry:
  %this.addr = alloca ptr, align 8
  store ptr %this, ptr %this.addr, align 8
  %this1 = load ptr, ptr %this.addr, align 8
  %slice = getelementptr inbounds %"class.rocksdb::Endpoint", ptr %this1, i32 0, i32 0
  call void @_ZN7rocksdb5SliceC2Ev(ptr noundef nonnull align 8 dereferenceable(16) %slice)
  %inf_suffix = getelementptr inbounds %"class.rocksdb::Endpoint", ptr %this1, i32 0, i32 1
  store i8 0, ptr %inf_suffix, align 8
  ret void
}

; Function Attrs: mustprogress uwtable
define noundef zeroext i1 @_ZN7rocksdb20RangeTreeLockManager24OnEscalationBarrierCheckEPK10__toku_dbtS3_Pv(ptr noundef %a, ptr noundef %b, ptr noundef %extra) #0 align 2 {
entry:
  %a.addr = alloca ptr, align 8
  %b.addr = alloca ptr, align 8
  %extra.addr = alloca ptr, align 8
  %a_endp = alloca %"class.rocksdb::Endpoint", align 8
  %b_endp = alloca %"class.rocksdb::Endpoint", align 8
  %self = alloca ptr, align 8
  store ptr %a, ptr %a.addr, align 8
  store ptr %b, ptr %b.addr, align 8
  store ptr %extra, ptr %extra.addr, align 8
  call void @_ZN7rocksdb8EndpointC2Ev(ptr noundef nonnull align 8 dereferenceable(17) %a_endp)
  call void @_ZN7rocksdb8EndpointC2Ev(ptr noundef nonnull align 8 dereferenceable(17) %b_endp)
  %0 = load ptr, ptr %a.addr, align 8
  call void @_ZN7rocksdb20deserialize_endpointINS_8EndpointEEEvPK10__toku_dbtPT_(ptr noundef %0, ptr noundef %a_endp)
  %1 = load ptr, ptr %b.addr, align 8
  call void @_ZN7rocksdb20deserialize_endpointINS_8EndpointEEEvPK10__toku_dbtPT_(ptr noundef %1, ptr noundef %b_endp)
  %2 = load ptr, ptr %extra.addr, align 8
  store ptr %2, ptr %self, align 8
  %3 = load ptr, ptr %self, align 8
  %barrier_func_ = getelementptr inbounds %"class.rocksdb::RangeTreeLockManager", ptr %3, i32 0, i32 3
  %call = call noundef zeroext i1 @_ZNKSt8functionIFbRKN7rocksdb8EndpointES3_EEclES3_S3_(ptr noundef nonnull align 8 dereferenceable(32) %barrier_func_, ptr noundef nonnull align 8 dereferenceable(17) %a_endp, ptr noundef nonnull align 8 dereferenceable(17) %b_endp)
  ret i1 %call
}