; Function Attrs: mustprogress uwtable
define noundef zeroext i1 @_ZN7rocksdb20RangeTreeLockManager24OnEscalationBarrierCheckEPK10__toku_dbtS3_Pv(ptr nocapture noundef readonly %a, ptr nocapture noundef readonly %b, ptr noundef %extra) #2 align 2 {
entry:
  %a_endp = alloca %"class.rocksdb::Endpoint", align 8
  %b_endp = alloca %"class.rocksdb::Endpoint", align 8
  %size_.i.i = getelementptr inbounds i8, ptr %a_endp, i64 8
  %inf_suffix.i = getelementptr inbounds i8, ptr %a_endp, i64 16
  %size_.i.i1 = getelementptr inbounds i8, ptr %b_endp, i64 8
  %inf_suffix.i2 = getelementptr inbounds i8, ptr %b_endp, i64 16
  %0 = load ptr, ptr %a, align 8
  %1 = load i8, ptr %0, align 1
  %cmp.i = icmp eq i8 %1, 1
  %frombool.i = zext i1 %cmp.i to i8
  store i8 %frombool.i, ptr %inf_suffix.i, align 8
  %add.ptr.i = getelementptr inbounds i8, ptr %0, i64 1
  %size.i = getelementptr inbounds i8, ptr %a, i64 8
  %2 = load i64, ptr %size.i, align 8
  %sub.i = add i64 %2, -1
  store ptr %add.ptr.i, ptr %a_endp, align 8
  store i64 %sub.i, ptr %size_.i.i, align 8
  %3 = load ptr, ptr %b, align 8
  %4 = load i8, ptr %3, align 1
  %cmp.i4 = icmp eq i8 %4, 1
  %frombool.i6 = zext i1 %cmp.i4 to i8
  store i8 %frombool.i6, ptr %inf_suffix.i2, align 8
  %add.ptr.i7 = getelementptr inbounds i8, ptr %3, i64 1
  %size.i8 = getelementptr inbounds i8, ptr %b, i64 8
  %5 = load i64, ptr %size.i8, align 8
  %sub.i9 = add i64 %5, -1
  store ptr %add.ptr.i7, ptr %b_endp, align 8
  store i64 %sub.i9, ptr %size_.i.i1, align 8
  %_M_manager.i.i = getelementptr inbounds i8, ptr %extra, i64 424
  %6 = load ptr, ptr %_M_manager.i.i, align 8
  %tobool.not.i.i = icmp eq ptr %6, null
  br i1 %tobool.not.i.i, label %if.then.i, label %_ZNKSt8functionIFbRKN7rocksdb8EndpointES3_EEclES3_S3_.exit

if.then.i:                                        ; preds = %entry
  tail call void @_ZSt25__throw_bad_function_callv() #25
  unreachable

_ZNKSt8functionIFbRKN7rocksdb8EndpointES3_EEclES3_S3_.exit: ; preds = %entry
  %barrier_func_ = getelementptr inbounds i8, ptr %extra, i64 408
  %_M_invoker.i = getelementptr inbounds i8, ptr %extra, i64 432
  %7 = load ptr, ptr %_M_invoker.i, align 8
  %call4.i = call noundef zeroext i1 %7(ptr noundef nonnull align 8 dereferenceable(16) %barrier_func_, ptr noundef nonnull align 8 dereferenceable(17) %a_endp, ptr noundef nonnull align 8 dereferenceable(17) %b_endp)
  ret i1 %call4.i
}